ARM GAS  C:\Users\ALBERT~1\AppData\Local\Temp\ccAn5F0d.s 			page 1


   1              		.syntax unified
   2              		.cpu cortex-m3
   3              		.fpu softvfp
   4              		.eabi_attribute 20, 1
   5              		.eabi_attribute 21, 1
   6              		.eabi_attribute 23, 3
   7              		.eabi_attribute 24, 1
   8              		.eabi_attribute 25, 1
   9              		.eabi_attribute 26, 1
  10              		.eabi_attribute 30, 6
  11              		.eabi_attribute 34, 1
  12              		.eabi_attribute 18, 4
  13              		.thumb
  14              		.syntax unified
  15              		.file	"main.c"
  16              		.text
  17              	.Ltext0:
  18              		.cfi_sections	.debug_frame
  19              		.comm	txChannel,1,1
  20              		.comm	txTD,1,1
  21              		.comm	rxChannel,1,1
  22              		.comm	rxTD,1,1
  23              		.global	txBuffer
  24              		.data
  25              		.align	2
  26              		.type	txBuffer, %object
  27              		.size	txBuffer, 8
  28              	txBuffer:
  29 0000 00       		.byte	0
  30 0001 01       		.byte	1
  31 0002 02       		.byte	2
  32 0003 03       		.byte	3
  33 0004 04       		.byte	4
  34 0005 05       		.byte	5
  35 0006 06       		.byte	6
  36 0007 07       		.byte	7
  37              		.comm	rxBuffer,8,4
  38              		.section	.rodata
  39              		.align	2
  40              	.LC0:
  41 0000 53504920 		.ascii	"SPI Master\000"
  41      4D617374 
  41      657200
  42 000b 00       		.align	2
  43              	.LC1:
  44 000c 6578616D 		.ascii	"example\000"
  44      706C6500 
  45              		.align	2
  46              	.LC2:
  47 0014 4D617374 		.ascii	"Master Rx data:\000"
  47      65722052 
  47      78206461 
  47      74613A00 
  48              		.section	.text.main,"ax",%progbits
  49              		.align	2
  50              		.global	main
  51              		.thumb
ARM GAS  C:\Users\ALBERT~1\AppData\Local\Temp\ccAn5F0d.s 			page 2


  52              		.thumb_func
  53              		.type	main, %function
  54              	main:
  55              	.LFB63:
  56              		.file 1 "main.c"
   1:main.c        **** /*******************************************************************************
   2:main.c        **** * File Name: main.c
   3:main.c        **** *
   4:main.c        **** * Version: 1.10
   5:main.c        **** *
   6:main.c        **** * Description:
   7:main.c        **** *  This is source code for example project of the SPI Master component.
   8:main.c        **** *  Parameters used:
   9:main.c        **** *   Mode                CPHA == 0, CPOL == 0                
  10:main.c        **** *   Data lines          MOSI+MISO
  11:main.c        **** *   Shift direction     MSB First
  12:main.c        **** *   DataBits:           8 
  13:main.c        **** *   Bit Rate            1 Mbps
  14:main.c        **** *   Clock source        External 
  15:main.c        **** *
  16:main.c        **** *  SPI communication test using DMA. 8 bytes are transmitted
  17:main.c        **** *  between SPI Master and SPI Slave.
  18:main.c        **** *  Received data are displayed on LCD. 
  19:main.c        **** *
  20:main.c        **** ********************************************************************************
  21:main.c        **** * Copyright 2012-2015, Cypress Semiconductor Corporation. All rights reserved.
  22:main.c        **** * This software is owned by Cypress Semiconductor Corporation and is protected
  23:main.c        **** * by and subject to worldwide patent and copyright laws and treaties.
  24:main.c        **** * Therefore, you may use this software only as provided in the license agreement
  25:main.c        **** * accompanying the software package from which you obtained this software.
  26:main.c        **** * CYPRESS AND ITS SUPPLIERS MAKE NO WARRANTY OF ANY KIND, EXPRESS OR IMPLIED,
  27:main.c        **** * WITH REGARD TO THIS SOFTWARE, INCLUDING, BUT NOT LIMITED TO, NONINFRINGEMENT,
  28:main.c        **** * IMPLIED WARRANTIES OF MERCHANTABILITY AND FITNESS FOR A PARTICULAR PURPOSE.
  29:main.c        **** *******************************************************************************/
  30:main.c        **** 
  31:main.c        **** #include <project.h>
  32:main.c        **** 
  33:main.c        **** void DmaTxConfiguration(void);
  34:main.c        **** void DmaRxConfiguration(void);
  35:main.c        **** 
  36:main.c        **** /* DMA Configuration for DMA_TX */
  37:main.c        **** #define DMA_TX_BYTES_PER_BURST      (1u)
  38:main.c        **** #define DMA_TX_REQUEST_PER_BURST    (1u)
  39:main.c        **** #define DMA_TX_SRC_BASE             (CYDEV_SRAM_BASE)
  40:main.c        **** #define DMA_TX_DST_BASE             (CYDEV_PERIPH_BASE)
  41:main.c        **** 
  42:main.c        **** /* DMA Configuration for DMA_RX */
  43:main.c        **** #define DMA_RX_BYTES_PER_BURST      (1u)
  44:main.c        **** #define DMA_RX_REQUEST_PER_BURST    (1u)
  45:main.c        **** #define DMA_RX_SRC_BASE             (CYDEV_PERIPH_BASE)
  46:main.c        **** #define DMA_RX_DST_BASE             (CYDEV_SRAM_BASE)
  47:main.c        **** 
  48:main.c        **** #define BUFFER_SIZE                 (8u)
  49:main.c        **** #define STORE_TD_CFG_ONCMPLT        (1u)
  50:main.c        **** 
  51:main.c        **** /* Variable declarations for DMA_TX*/
  52:main.c        **** uint8 txChannel;
ARM GAS  C:\Users\ALBERT~1\AppData\Local\Temp\ccAn5F0d.s 			page 3


  53:main.c        **** uint8 txTD;
  54:main.c        **** 
  55:main.c        **** /* Variable declarations for DMA_RX */
  56:main.c        **** uint8 rxChannel;
  57:main.c        **** uint8 rxTD;
  58:main.c        **** 
  59:main.c        **** /* Data buffers */
  60:main.c        **** uint8 txBuffer [BUFFER_SIZE] = {0x0u, 0x01u, 0x02u, 0x03u, 0x04u, 0x05u, 0x06u, 0x07u};
  61:main.c        **** uint8 rxBuffer[BUFFER_SIZE];
  62:main.c        **** 
  63:main.c        **** /*******************************************************************************
  64:main.c        **** * Function Name: main
  65:main.c        **** ********************************************************************************
  66:main.c        **** * Summary:
  67:main.c        **** *  Main function performs following functions:
  68:main.c        **** *   1. Starts Character LCD and print project info
  69:main.c        **** *   2. Starts SPI Master component
  70:main.c        **** *   3. Configures the DMA transfer for RX and TX directions
  71:main.c        **** *   4. Displays the results on Character LCD
  72:main.c        **** *   
  73:main.c        **** * Parameters:
  74:main.c        **** *  None.
  75:main.c        **** *
  76:main.c        **** * Return:
  77:main.c        **** *  None.
  78:main.c        **** *
  79:main.c        **** *******************************************************************************/
  80:main.c        **** int main()
  81:main.c        **** {
  57              		.loc 1 81 0
  58              		.cfi_startproc
  59              		@ args = 0, pretend = 0, frame = 8
  60              		@ frame_needed = 1, uses_anonymous_args = 0
  61 0000 80B5     		push	{r7, lr}
  62              		.cfi_def_cfa_offset 8
  63              		.cfi_offset 7, -8
  64              		.cfi_offset 14, -4
  65 0002 82B0     		sub	sp, sp, #8
  66              		.cfi_def_cfa_offset 16
  67 0004 00AF     		add	r7, sp, #0
  68              		.cfi_def_cfa_register 7
  82:main.c        ****     uint8 i;
  83:main.c        ****     
  84:main.c        ****     UART_USB_Start();
  69              		.loc 1 84 0
  70 0006 FFF7FEFF 		bl	UART_USB_Start
  85:main.c        ****     UART_USB_PutString("SPI Master");
  71              		.loc 1 85 0
  72 000a 2548     		ldr	r0, .L6
  73 000c FFF7FEFF 		bl	UART_USB_PutString
  86:main.c        ****     UART_USB_PutString("example");
  74              		.loc 1 86 0
  75 0010 2448     		ldr	r0, .L6+4
  76 0012 FFF7FEFF 		bl	UART_USB_PutString
  87:main.c        ****     CyDelay(2000u);
  77              		.loc 1 87 0
  78 0016 4FF4FA60 		mov	r0, #2000
ARM GAS  C:\Users\ALBERT~1\AppData\Local\Temp\ccAn5F0d.s 			page 4


  79 001a FFF7FEFF 		bl	CyDelay
  88:main.c        ****     
  89:main.c        ****     DmaTxConfiguration();
  80              		.loc 1 89 0
  81 001e FFF7FEFF 		bl	DmaTxConfiguration
  90:main.c        ****     DmaRxConfiguration();
  82              		.loc 1 90 0
  83 0022 FFF7FEFF 		bl	DmaRxConfiguration
  91:main.c        ****     
  92:main.c        ****     SPIM_Start();
  84              		.loc 1 92 0
  85 0026 FFF7FEFF 		bl	SPIM_Start
  93:main.c        ****     
  94:main.c        ****     CyDmaChEnable(rxChannel, STORE_TD_CFG_ONCMPLT);
  86              		.loc 1 94 0
  87 002a 1F4B     		ldr	r3, .L6+8
  88 002c 1B78     		ldrb	r3, [r3]	@ zero_extendqisi2
  89 002e 0121     		movs	r1, #1
  90 0030 1846     		mov	r0, r3
  91 0032 FFF7FEFF 		bl	CyDmaChEnable
  95:main.c        ****     CyDmaChEnable(txChannel, STORE_TD_CFG_ONCMPLT);
  92              		.loc 1 95 0
  93 0036 1D4B     		ldr	r3, .L6+12
  94 0038 1B78     		ldrb	r3, [r3]	@ zero_extendqisi2
  95 003a 0121     		movs	r1, #1
  96 003c 1846     		mov	r0, r3
  97 003e FFF7FEFF 		bl	CyDmaChEnable
  96:main.c        **** 
  97:main.c        ****     while (0u == (SPIM_ReadTxStatus() & SPIM_STS_SPI_DONE))
  98              		.loc 1 97 0
  99 0042 00BF     		nop
 100              	.L2:
 101              		.loc 1 97 0 is_stmt 0 discriminator 1
 102 0044 FFF7FEFF 		bl	SPIM_ReadTxStatus
 103 0048 0346     		mov	r3, r0
 104 004a 03F00103 		and	r3, r3, #1
 105 004e 002B     		cmp	r3, #0
 106 0050 F8D0     		beq	.L2
  98:main.c        ****     {
  99:main.c        ****     }
 100:main.c        ****     
 101:main.c        ****     UART_USB_PutString("Master Rx data:");
 107              		.loc 1 101 0 is_stmt 1
 108 0052 1748     		ldr	r0, .L6+16
 109 0054 FFF7FEFF 		bl	UART_USB_PutString
 102:main.c        ****     
 103:main.c        ****     for(i=0u; i<BUFFER_SIZE; i++)
 110              		.loc 1 103 0
 111 0058 0023     		movs	r3, #0
 112 005a FB71     		strb	r3, [r7, #7]
 113 005c 08E0     		b	.L3
 114              	.L4:
 104:main.c        ****     {
 105:main.c        ****         UART_USB_PutChar(rxBuffer[i]);
 115              		.loc 1 105 0 discriminator 3
 116 005e FB79     		ldrb	r3, [r7, #7]	@ zero_extendqisi2
 117 0060 144A     		ldr	r2, .L6+20
ARM GAS  C:\Users\ALBERT~1\AppData\Local\Temp\ccAn5F0d.s 			page 5


 118 0062 D35C     		ldrb	r3, [r2, r3]	@ zero_extendqisi2
 119 0064 1846     		mov	r0, r3
 120 0066 FFF7FEFF 		bl	UART_USB_PutChar
 103:main.c        ****     {
 121              		.loc 1 103 0 discriminator 3
 122 006a FB79     		ldrb	r3, [r7, #7]	@ zero_extendqisi2
 123 006c 0133     		adds	r3, r3, #1
 124 006e FB71     		strb	r3, [r7, #7]
 125              	.L3:
 103:main.c        ****     {
 126              		.loc 1 103 0 is_stmt 0 discriminator 1
 127 0070 FB79     		ldrb	r3, [r7, #7]	@ zero_extendqisi2
 128 0072 072B     		cmp	r3, #7
 129 0074 F3D9     		bls	.L4
 130              	.L5:
 106:main.c        ****     }
 107:main.c        **** 
 108:main.c        ****     for(;;)
 109:main.c        ****     {
 110:main.c        **** 
 111:main.c        ****         SPIM_WriteTxData(0);
 131              		.loc 1 111 0 is_stmt 1 discriminator 1
 132 0076 0020     		movs	r0, #0
 133 0078 FFF7FEFF 		bl	SPIM_WriteTxData
 112:main.c        ****         //SPIM_WriteTxData(4);
 113:main.c        ****         //SPIM_Stop();
 114:main.c        ****         CyDelayUs(1);
 134              		.loc 1 114 0 discriminator 1
 135 007c 0120     		movs	r0, #1
 136 007e FFF7FEFF 		bl	CyDelayUs
 115:main.c        ****         SPIM_WriteTxData(0);
 137              		.loc 1 115 0 discriminator 1
 138 0082 0020     		movs	r0, #0
 139 0084 FFF7FEFF 		bl	SPIM_WriteTxData
 116:main.c        ****         SPIM_WriteTxData(16);
 140              		.loc 1 116 0 discriminator 1
 141 0088 1020     		movs	r0, #16
 142 008a FFF7FEFF 		bl	SPIM_WriteTxData
 117:main.c        ****         SPIM_ReadRxStatus();
 143              		.loc 1 117 0 discriminator 1
 144 008e FFF7FEFF 		bl	SPIM_ReadRxStatus
 118:main.c        ****         //SPIM_WriteTxData(16);
 119:main.c        ****         SPIM_ReadRxData();
 145              		.loc 1 119 0 discriminator 1
 146 0092 FFF7FEFF 		bl	SPIM_ReadRxData
 120:main.c        ****         CyDelay(1000);
 147              		.loc 1 120 0 discriminator 1
 148 0096 4FF47A70 		mov	r0, #1000
 149 009a FFF7FEFF 		bl	CyDelay
 121:main.c        ****         
 122:main.c        ****     }
 150              		.loc 1 122 0 discriminator 1
 151 009e EAE7     		b	.L5
 152              	.L7:
 153              		.align	2
 154              	.L6:
 155 00a0 00000000 		.word	.LC0
ARM GAS  C:\Users\ALBERT~1\AppData\Local\Temp\ccAn5F0d.s 			page 6


 156 00a4 0C000000 		.word	.LC1
 157 00a8 00000000 		.word	rxChannel
 158 00ac 00000000 		.word	txChannel
 159 00b0 14000000 		.word	.LC2
 160 00b4 00000000 		.word	rxBuffer
 161              		.cfi_endproc
 162              	.LFE63:
 163              		.size	main, .-main
 164              		.section	.text.DmaTxConfiguration,"ax",%progbits
 165              		.align	2
 166              		.global	DmaTxConfiguration
 167              		.thumb
 168              		.thumb_func
 169              		.type	DmaTxConfiguration, %function
 170              	DmaTxConfiguration:
 171              	.LFB64:
 123:main.c        **** }
 124:main.c        **** 
 125:main.c        ****     
 126:main.c        **** /*******************************************************************************
 127:main.c        **** * Function Name: DmaTxConfiguration
 128:main.c        **** ********************************************************************************
 129:main.c        **** * Summary:
 130:main.c        **** *  Configures the DMA transfer for TX direction
 131:main.c        **** *   
 132:main.c        **** * Parameters:
 133:main.c        **** *  None.
 134:main.c        **** *
 135:main.c        **** * Return:
 136:main.c        **** *  None.
 137:main.c        **** *
 138:main.c        **** *******************************************************************************/
 139:main.c        **** void DmaTxConfiguration()
 140:main.c        **** {
 172              		.loc 1 140 0
 173              		.cfi_startproc
 174              		@ args = 0, pretend = 0, frame = 0
 175              		@ frame_needed = 1, uses_anonymous_args = 0
 176 0000 80B5     		push	{r7, lr}
 177              		.cfi_def_cfa_offset 8
 178              		.cfi_offset 7, -8
 179              		.cfi_offset 14, -4
 180 0002 00AF     		add	r7, sp, #0
 181              		.cfi_def_cfa_register 7
 141:main.c        ****     /* Init DMA, 1 byte bursts, each burst requires a request */ 
 142:main.c        ****     txChannel = DMA_TX_DmaInitialize(DMA_TX_BYTES_PER_BURST, DMA_TX_REQUEST_PER_BURST, 
 182              		.loc 1 142 0
 183 0004 4FF48043 		mov	r3, #16384
 184 0008 41F6FF72 		movw	r2, #8191
 185 000c 0121     		movs	r1, #1
 186 000e 0120     		movs	r0, #1
 187 0010 FFF7FEFF 		bl	DMA_TX_DmaInitialize
 188 0014 0346     		mov	r3, r0
 189 0016 1A46     		mov	r2, r3
 190 0018 104B     		ldr	r3, .L9
 191 001a 1A70     		strb	r2, [r3]
 143:main.c        ****                                         HI16(DMA_TX_SRC_BASE), HI16(DMA_TX_DST_BASE));
ARM GAS  C:\Users\ALBERT~1\AppData\Local\Temp\ccAn5F0d.s 			page 7


 144:main.c        **** 
 145:main.c        ****     txTD = CyDmaTdAllocate();
 192              		.loc 1 145 0
 193 001c FFF7FEFF 		bl	CyDmaTdAllocate
 194 0020 0346     		mov	r3, r0
 195 0022 1A46     		mov	r2, r3
 196 0024 0E4B     		ldr	r3, .L9+4
 197 0026 1A70     		strb	r2, [r3]
 146:main.c        **** 
 147:main.c        ****     /* Configure this Td as follows:
 148:main.c        ****     *  - Increment the source address, but not the destination address   
 149:main.c        ****     */
 150:main.c        ****     CyDmaTdSetConfiguration(txTD, BUFFER_SIZE, CY_DMA_DISABLE_TD, TD_INC_SRC_ADR);
 198              		.loc 1 150 0
 199 0028 0D4B     		ldr	r3, .L9+4
 200 002a 1878     		ldrb	r0, [r3]	@ zero_extendqisi2
 201 002c 0123     		movs	r3, #1
 202 002e FE22     		movs	r2, #254
 203 0030 0821     		movs	r1, #8
 204 0032 FFF7FEFF 		bl	CyDmaTdSetConfiguration
 151:main.c        **** 
 152:main.c        ****     /* From the memory to the SPIM */
 153:main.c        ****     CyDmaTdSetAddress(txTD, LO16((uint32)txBuffer), LO16((uint32) SPIM_TXDATA_PTR));
 205              		.loc 1 153 0
 206 0036 0A4B     		ldr	r3, .L9+4
 207 0038 1B78     		ldrb	r3, [r3]	@ zero_extendqisi2
 208 003a 0A4A     		ldr	r2, .L9+8
 209 003c 91B2     		uxth	r1, r2
 210 003e 46F24452 		movw	r2, #25924
 211 0042 1846     		mov	r0, r3
 212 0044 FFF7FEFF 		bl	CyDmaTdSetAddress
 154:main.c        ****     
 155:main.c        ****     /* Associate the TD with the channel */
 156:main.c        ****     CyDmaChSetInitialTd(txChannel, txTD); 
 213              		.loc 1 156 0
 214 0048 044B     		ldr	r3, .L9
 215 004a 1A78     		ldrb	r2, [r3]	@ zero_extendqisi2
 216 004c 044B     		ldr	r3, .L9+4
 217 004e 1B78     		ldrb	r3, [r3]	@ zero_extendqisi2
 218 0050 1946     		mov	r1, r3
 219 0052 1046     		mov	r0, r2
 220 0054 FFF7FEFF 		bl	CyDmaChSetInitialTd
 157:main.c        **** }    
 221              		.loc 1 157 0
 222 0058 00BF     		nop
 223 005a 80BD     		pop	{r7, pc}
 224              	.L10:
 225              		.align	2
 226              	.L9:
 227 005c 00000000 		.word	txChannel
 228 0060 00000000 		.word	txTD
 229 0064 00000000 		.word	txBuffer
 230              		.cfi_endproc
 231              	.LFE64:
 232              		.size	DmaTxConfiguration, .-DmaTxConfiguration
 233              		.section	.text.DmaRxConfiguration,"ax",%progbits
 234              		.align	2
ARM GAS  C:\Users\ALBERT~1\AppData\Local\Temp\ccAn5F0d.s 			page 8


 235              		.global	DmaRxConfiguration
 236              		.thumb
 237              		.thumb_func
 238              		.type	DmaRxConfiguration, %function
 239              	DmaRxConfiguration:
 240              	.LFB65:
 158:main.c        **** 
 159:main.c        **** 
 160:main.c        **** /*******************************************************************************
 161:main.c        **** * Function Name: DmaRxConfiguration
 162:main.c        **** ********************************************************************************
 163:main.c        **** * Summary:
 164:main.c        **** *  Configures the DMA transfer for RX direction
 165:main.c        **** *   
 166:main.c        **** * Parameters:
 167:main.c        **** *  None.
 168:main.c        **** *
 169:main.c        **** * Return:
 170:main.c        **** *  None.
 171:main.c        **** *
 172:main.c        **** *******************************************************************************/
 173:main.c        **** void DmaRxConfiguration()
 174:main.c        **** { 
 241              		.loc 1 174 0
 242              		.cfi_startproc
 243              		@ args = 0, pretend = 0, frame = 0
 244              		@ frame_needed = 1, uses_anonymous_args = 0
 245 0000 80B5     		push	{r7, lr}
 246              		.cfi_def_cfa_offset 8
 247              		.cfi_offset 7, -8
 248              		.cfi_offset 14, -4
 249 0002 00AF     		add	r7, sp, #0
 250              		.cfi_def_cfa_register 7
 175:main.c        ****     /* Init DMA, 1 byte bursts, each burst requires a request */ 
 176:main.c        ****     rxChannel = DMA_RX_DmaInitialize(DMA_RX_BYTES_PER_BURST, DMA_RX_REQUEST_PER_BURST,
 251              		.loc 1 176 0
 252 0004 41F6FF73 		movw	r3, #8191
 253 0008 4FF48042 		mov	r2, #16384
 254 000c 0121     		movs	r1, #1
 255 000e 0120     		movs	r0, #1
 256 0010 FFF7FEFF 		bl	DMA_RX_DmaInitialize
 257 0014 0346     		mov	r3, r0
 258 0016 1A46     		mov	r2, r3
 259 0018 104B     		ldr	r3, .L12
 260 001a 1A70     		strb	r2, [r3]
 177:main.c        ****                                      HI16(DMA_RX_SRC_BASE), HI16(DMA_RX_DST_BASE));
 178:main.c        **** 
 179:main.c        ****     rxTD = CyDmaTdAllocate();
 261              		.loc 1 179 0
 262 001c FFF7FEFF 		bl	CyDmaTdAllocate
 263 0020 0346     		mov	r3, r0
 264 0022 1A46     		mov	r2, r3
 265 0024 0E4B     		ldr	r3, .L12+4
 266 0026 1A70     		strb	r2, [r3]
 180:main.c        ****     
 181:main.c        ****     /* Configure this Td as follows:
 182:main.c        ****     *  - Increment the destination address, but not the source address
ARM GAS  C:\Users\ALBERT~1\AppData\Local\Temp\ccAn5F0d.s 			page 9


 183:main.c        ****     */
 184:main.c        ****     CyDmaTdSetConfiguration(rxTD, BUFFER_SIZE, CY_DMA_DISABLE_TD, TD_INC_DST_ADR);
 267              		.loc 1 184 0
 268 0028 0D4B     		ldr	r3, .L12+4
 269 002a 1878     		ldrb	r0, [r3]	@ zero_extendqisi2
 270 002c 0223     		movs	r3, #2
 271 002e FE22     		movs	r2, #254
 272 0030 0821     		movs	r1, #8
 273 0032 FFF7FEFF 		bl	CyDmaTdSetConfiguration
 185:main.c        **** 
 186:main.c        ****     /* From the SPIM to the memory */
 187:main.c        ****     CyDmaTdSetAddress(rxTD, LO16((uint32)SPIM_RXDATA_PTR), LO16((uint32)rxBuffer));
 274              		.loc 1 187 0
 275 0036 0A4B     		ldr	r3, .L12+4
 276 0038 1B78     		ldrb	r3, [r3]	@ zero_extendqisi2
 277 003a 0A4A     		ldr	r2, .L12+8
 278 003c 92B2     		uxth	r2, r2
 279 003e 46F25451 		movw	r1, #25940
 280 0042 1846     		mov	r0, r3
 281 0044 FFF7FEFF 		bl	CyDmaTdSetAddress
 188:main.c        **** 
 189:main.c        ****     /* Associate the TD with the channel */
 190:main.c        ****     CyDmaChSetInitialTd(rxChannel, rxTD);
 282              		.loc 1 190 0
 283 0048 044B     		ldr	r3, .L12
 284 004a 1A78     		ldrb	r2, [r3]	@ zero_extendqisi2
 285 004c 044B     		ldr	r3, .L12+4
 286 004e 1B78     		ldrb	r3, [r3]	@ zero_extendqisi2
 287 0050 1946     		mov	r1, r3
 288 0052 1046     		mov	r0, r2
 289 0054 FFF7FEFF 		bl	CyDmaChSetInitialTd
 191:main.c        **** }
 290              		.loc 1 191 0
 291 0058 00BF     		nop
 292 005a 80BD     		pop	{r7, pc}
 293              	.L13:
 294              		.align	2
 295              	.L12:
 296 005c 00000000 		.word	rxChannel
 297 0060 00000000 		.word	rxTD
 298 0064 00000000 		.word	rxBuffer
 299              		.cfi_endproc
 300              	.LFE65:
 301              		.size	DmaRxConfiguration, .-DmaRxConfiguration
 302              		.text
 303              	.Letext0:
 304              		.file 2 "c:\\program files (x86)\\cypress\\psoc creator\\4.2\\psoc creator\\import\\gnu\\arm\\5.4.
 305              		.file 3 "c:\\program files (x86)\\cypress\\psoc creator\\4.2\\psoc creator\\import\\gnu\\arm\\5.4.
 306              		.file 4 "Generated_Source\\PSoC5/cytypes.h"
 307              		.file 5 "Generated_Source\\PSoC5/core_cm3.h"