ARM GAS  C:\Users\ALBERT~1\AppData\Local\Temp\cczDa0Vc.s 			page 1


   1              		.syntax unified
   2              		.cpu cortex-m3
   3              		.fpu softvfp
   4              		.eabi_attribute 20, 1
   5              		.eabi_attribute 21, 1
   6              		.eabi_attribute 23, 3
   7              		.eabi_attribute 24, 1
   8              		.eabi_attribute 25, 1
   9              		.eabi_attribute 26, 1
  10              		.eabi_attribute 30, 6
  11              		.eabi_attribute 34, 1
  12              		.eabi_attribute 18, 4
  13              		.thumb
  14              		.syntax unified
  15              		.file	"main.c"
  16              		.text
  17              	.Ltext0:
  18              		.cfi_sections	.debug_frame
  19              		.global	sdFile
  20              		.data
  21              		.align	2
  22              		.type	sdFile, %object
  23              		.size	sdFile, 9
  24              	sdFile:
  25 0000 46696C65 		.ascii	"File.txt\000"
  25      2E747874 
  25      00
  26              		.section	.rodata
  27              		.align	2
  28              	.LC0:
  29 0000 53442063 		.ascii	"SD card name:\012 \015\000"
  29      61726420 
  29      6E616D65 
  29      3A0A200D 
  29      00
  30 0011 000000   		.align	2
  31              	.LC1:
  32 0014 0A200D00 		.ascii	"\012 \015\000"
  33              		.align	2
  34              	.LC2:
  35 0018 4661696C 		.ascii	"Failed to get\012 \015\000"
  35      65642074 
  35      6F206765 
  35      740A200D 
  35      00
  36 0029 000000   		.align	2
  37              	.LC3:
  38 002c 53442063 		.ascii	"SD card name\012 \015\000"
  38      61726420 
  38      6E616D65 
  38      0A200D00 
  39              		.align	2
  40              	.LC4:
  41 003c 53442063 		.ascii	"SD card format\012 \015\000"
  41      61726420 
  41      666F726D 
  41      61740A20 
ARM GAS  C:\Users\ALBERT~1\AppData\Local\Temp\cczDa0Vc.s 			page 2


  41      0D00
  42 004e 0000     		.align	2
  43              	.LC5:
  44 0050 53756363 		.ascii	"Succeeded\012 \015\000"
  44      65656465 
  44      640A200D 
  44      00
  45 005d 000000   		.align	2
  46              	.LC6:
  47 0060 4661696C 		.ascii	"Failed\012 \015\000"
  47      65640A20 
  47      0D00
  48 006a 0000     		.align	2
  49              	.LC7:
  50 006c 44697200 		.ascii	"Dir\000"
  51              		.align	2
  52              	.LC8:
  53 0070 22446972 		.ascii	"\"Dir\" created\012 \015\000"
  53      22206372 
  53      65617465 
  53      640A200D 
  53      00
  54 0081 000000   		.align	2
  55              	.LC9:
  56 0084 4661696C 		.ascii	"Failed to create\012 \015\000"
  56      65642074 
  56      6F206372 
  56      65617465 
  56      0A200D00 
  57              		.align	2
  58              	.LC10:
  59 0098 64697265 		.ascii	"directory\012 \015\000"
  59      63746F72 
  59      790A200D 
  59      00
  60 00a5 000000   		.align	2
  61              	.LC11:
  62 00a8 7700     		.ascii	"w\000"
  63 00aa 0000     		.align	2
  64              	.LC12:
  65 00ac 46696C65 		.ascii	"File \012 \015\000"
  65      200A200D 
  65      00
  66 00b5 000000   		.align	2
  67              	.LC13:
  68 00b8 77617320 		.ascii	"was opened\012 \015\000"
  68      6F70656E 
  68      65640A20 
  68      0D00
  69 00c6 0000     		.align	2
  70              	.LC14:
  71 00c8 30313233 		.ascii	"0123456789\000"
  71      34353637 
  71      383900
  72 00d3 00       		.align	2
  73              	.LC15:
  74 00d4 22303132 		.ascii	"\"0123456789\"\012 \015\000"
ARM GAS  C:\Users\ALBERT~1\AppData\Local\Temp\cczDa0Vc.s 			page 3


  74      33343536 
  74      37383922 
  74      0A200D00 
  75              		.align	2
  76              	.LC16:
  77 00e4 77726974 		.ascii	"written to file\012 \015\000"
  77      74656E20 
  77      746F2066 
  77      696C650A 
  77      200D00
  78 00f7 00       		.align	2
  79              	.LC17:
  80 00f8 4661696C 		.ascii	"Failed to write\012 \015\000"
  80      65642074 
  80      6F207772 
  80      6974650A 
  80      200D00
  81 010b 00       		.align	2
  82              	.LC18:
  83 010c 64617461 		.ascii	"data to file\012 \015\000"
  83      20746F20 
  83      66696C65 
  83      0A200D00 
  84              		.align	2
  85              	.LC19:
  86 011c 46696C65 		.ascii	"File was closed\012 \015\000"
  86      20776173 
  86      20636C6F 
  86      7365640A 
  86      200D00
  87 012f 00       		.align	2
  88              	.LC20:
  89 0130 4661696C 		.ascii	"Failed to close\012 \015\000"
  89      65642074 
  89      6F20636C 
  89      6F73650A 
  89      200D00
  90 0143 00       		.align	2
  91              	.LC21:
  92 0144 66696C65 		.ascii	"file\012 \015\000"
  92      0A200D00 
  93              		.align	2
  94              	.LC22:
  95 014c 5C446972 		.ascii	"\\Dir\\file1.txt\000"
  95      5C66696C 
  95      65312E74 
  95      787400
  96 015b 00       		.align	2
  97              	.LC23:
  98 015c 46696C65 		.ascii	"File was \012 \015\000"
  98      20776173 
  98      200A200D 
  98      00
  99 0169 000000   		.align	2
 100              	.LC24:
 101 016c 636F7069 		.ascii	"copied to \"DIR\"\012 \015\000"
 101      65642074 
ARM GAS  C:\Users\ALBERT~1\AppData\Local\Temp\cczDa0Vc.s 			page 4


 101      6F202244 
 101      4952220A 
 101      200D00
 102 017f 00       		.align	2
 103              	.LC25:
 104 0180 4661696C 		.ascii	"Failed to copy\012 \015\000"
 104      65642074 
 104      6F20636F 
 104      70790A20 
 104      0D00
 105 0192 0000     		.align	2
 106              	.LC26:
 107 0194 4578616D 		.ascii	"Example project\012 \015\000"
 107      706C6520 
 107      70726F6A 
 107      6563740A 
 107      200D00
 108 01a7 00       		.align	2
 109              	.LC27:
 110 01a8 636F6D70 		.ascii	"completed\012 \015\000"
 110      6C657465 
 110      640A200D 
 110      00
 111              		.section	.text.main,"ax",%progbits
 112              		.align	2
 113              		.global	main
 114              		.thumb
 115              		.thumb_func
 116              		.type	main, %function
 117              	main:
 118              	.LFB63:
 119              		.file 1 "main.c"
   1:main.c        **** #include <project.h>
   2:main.c        **** #include <FS.h>
   3:main.c        **** #include <string.h>
   4:main.c        **** #include <Global.h>
   5:main.c        **** 
   6:main.c        **** 
   7:main.c        **** char sdFile[9] = "File.txt"; // Choose the file name
   8:main.c        **** 
   9:main.c        **** 
  10:main.c        **** int main()
  11:main.c        **** {
 120              		.loc 1 11 0
 121              		.cfi_startproc
 122              		@ args = 0, pretend = 0, frame = 16
 123              		@ frame_needed = 1, uses_anonymous_args = 0
 124 0000 80B5     		push	{r7, lr}
 125              		.cfi_def_cfa_offset 8
 126              		.cfi_offset 7, -8
 127              		.cfi_offset 14, -4
 128 0002 84B0     		sub	sp, sp, #16
 129              		.cfi_def_cfa_offset 24
 130 0004 00AF     		add	r7, sp, #0
 131              		.cfi_def_cfa_register 7
  12:main.c        ****     CyGlobalIntEnable; //Enable global interrupts. (UART thing :D)
 132              		.loc 1 12 0
ARM GAS  C:\Users\ALBERT~1\AppData\Local\Temp\cczDa0Vc.s 			page 5


 133              		.syntax unified
 134              	@ 12 "main.c" 1
 135 0006 62B6     		CPSIE   i
 136              	@ 0 "" 2
  13:main.c        ****     
  14:main.c        ****     char sdVolName[10]; //Buffer that will hold SD card Volume name
  15:main.c        ****     FS_FILE * pFile;
  16:main.c        ****     
  17:main.c        ****     UART_Start(); //Start the UART
 137              		.loc 1 17 0
 138              		.thumb
 139              		.syntax unified
 140 0008 FFF7FEFF 		bl	UART_Start
  18:main.c        ****     
  19:main.c        ****     FS_Init(); //Initialize file system
 141              		.loc 1 19 0
 142 000c FFF7FEFF 		bl	FS_Init
  20:main.c        **** 
  21:main.c        ****     
  22:main.c        ****     if(0 != FS_GetVolumeName(0u, &sdVolName[0], 9u)) //Get volume name of SD card #0
 143              		.loc 1 22 0
 144 0010 3B46     		mov	r3, r7
 145 0012 0922     		movs	r2, #9
 146 0014 1946     		mov	r1, r3
 147 0016 0020     		movs	r0, #0
 148 0018 FFF7FEFF 		bl	FS_GetVolumeName
 149 001c 0346     		mov	r3, r0
 150 001e 002B     		cmp	r3, #0
 151 0020 0DD0     		beq	.L2
  23:main.c        ****     {
  24:main.c        ****         //Getting volume name succeeded so print it to the Serial monitor
  25:main.c        ****         UART_PutString("SD card name:\n \r");
 152              		.loc 1 25 0
 153 0022 7D48     		ldr	r0, .L17
 154 0024 FFF7FEFF 		bl	UART_PutString
  26:main.c        ****         UART_PutString(sdVolName);
 155              		.loc 1 26 0
 156 0028 3B46     		mov	r3, r7
 157 002a 1846     		mov	r0, r3
 158 002c FFF7FEFF 		bl	UART_PutString
  27:main.c        ****         UART_PutString("\n \r");
 159              		.loc 1 27 0
 160 0030 7A48     		ldr	r0, .L17+4
 161 0032 FFF7FEFF 		bl	UART_PutString
  28:main.c        ****         UART_PutString("\n \r");
 162              		.loc 1 28 0
 163 0036 7948     		ldr	r0, .L17+4
 164 0038 FFF7FEFF 		bl	UART_PutString
 165 003c 0BE0     		b	.L3
 166              	.L2:
  29:main.c        ****     }
  30:main.c        ****     else
  31:main.c        ****     {
  32:main.c        ****         //Operation Failed - indicate this
  33:main.c        ****         UART_PutString("Failed to get\n \r");
 167              		.loc 1 33 0
 168 003e 7848     		ldr	r0, .L17+8
ARM GAS  C:\Users\ALBERT~1\AppData\Local\Temp\cczDa0Vc.s 			page 6


 169 0040 FFF7FEFF 		bl	UART_PutString
  34:main.c        ****         UART_PutString("SD card name\n \r");
 170              		.loc 1 34 0
 171 0044 7748     		ldr	r0, .L17+12
 172 0046 FFF7FEFF 		bl	UART_PutString
  35:main.c        ****         UART_PutString("\n \r");
 173              		.loc 1 35 0
 174 004a 7448     		ldr	r0, .L17+4
 175 004c FFF7FEFF 		bl	UART_PutString
  36:main.c        ****         UART_PutString("\n \r");
 176              		.loc 1 36 0
 177 0050 7248     		ldr	r0, .L17+4
 178 0052 FFF7FEFF 		bl	UART_PutString
 179              	.L3:
  37:main.c        ****     }
  38:main.c        ****     
  39:main.c        ****     //Need some delay to indicate output on the Serial monitor
  40:main.c        ****     CyDelay(2000u);
 180              		.loc 1 40 0
 181 0056 4FF4FA60 		mov	r0, #2000
 182 005a FFF7FEFF 		bl	CyDelay
  41:main.c        ****     
  42:main.c        ****     UART_PutString("SD card format\n \r");
 183              		.loc 1 42 0
 184 005e 7248     		ldr	r0, .L17+16
 185 0060 FFF7FEFF 		bl	UART_PutString
  43:main.c        ****     
  44:main.c        ****     if(0 == FS_FormatSD(sdVolName))
 186              		.loc 1 44 0
 187 0064 3B46     		mov	r3, r7
 188 0066 1846     		mov	r0, r3
 189 0068 FFF7FEFF 		bl	FS_FormatSD
 190 006c 0346     		mov	r3, r0
 191 006e 002B     		cmp	r3, #0
 192 0070 09D1     		bne	.L4
  45:main.c        ****     {
  46:main.c        ****         UART_PutString("Succeeded\n \r");
 193              		.loc 1 46 0
 194 0072 6E48     		ldr	r0, .L17+20
 195 0074 FFF7FEFF 		bl	UART_PutString
  47:main.c        ****         UART_PutString("\n \r");
 196              		.loc 1 47 0
 197 0078 6848     		ldr	r0, .L17+4
 198 007a FFF7FEFF 		bl	UART_PutString
  48:main.c        ****         UART_PutString("\n \r");
 199              		.loc 1 48 0
 200 007e 6748     		ldr	r0, .L17+4
 201 0080 FFF7FEFF 		bl	UART_PutString
 202 0084 08E0     		b	.L5
 203              	.L4:
  49:main.c        ****     }
  50:main.c        ****     else
  51:main.c        ****     {
  52:main.c        ****         UART_PutString("Failed\n \r");
 204              		.loc 1 52 0
 205 0086 6A48     		ldr	r0, .L17+24
 206 0088 FFF7FEFF 		bl	UART_PutString
ARM GAS  C:\Users\ALBERT~1\AppData\Local\Temp\cczDa0Vc.s 			page 7


  53:main.c        ****         UART_PutString("\n \r");
 207              		.loc 1 53 0
 208 008c 6348     		ldr	r0, .L17+4
 209 008e FFF7FEFF 		bl	UART_PutString
  54:main.c        ****         UART_PutString("\n \r");
 210              		.loc 1 54 0
 211 0092 6248     		ldr	r0, .L17+4
 212 0094 FFF7FEFF 		bl	UART_PutString
 213              	.L5:
  55:main.c        ****     }
  56:main.c        ****     
  57:main.c        ****     CyDelay(2000u); //Need some delay to indicate output on the Serial monitor
 214              		.loc 1 57 0
 215 0098 4FF4FA60 		mov	r0, #2000
 216 009c FFF7FEFF 		bl	CyDelay
  58:main.c        ****     
  59:main.c        ****     if(0 == FS_MkDir("Dir")) //This will create directory "Dir" on SD card
 217              		.loc 1 59 0
 218 00a0 6448     		ldr	r0, .L17+28
 219 00a2 FFF7FEFF 		bl	FS_MkDir
 220 00a6 0346     		mov	r3, r0
 221 00a8 002B     		cmp	r3, #0
 222 00aa 09D1     		bne	.L6
  60:main.c        ****     {
  61:main.c        ****         //Display successful directory creation message
  62:main.c        ****         UART_PutString("\"Dir\" created\n \r");
 223              		.loc 1 62 0
 224 00ac 6248     		ldr	r0, .L17+32
 225 00ae FFF7FEFF 		bl	UART_PutString
  63:main.c        ****         UART_PutString("\n \r");
 226              		.loc 1 63 0
 227 00b2 5A48     		ldr	r0, .L17+4
 228 00b4 FFF7FEFF 		bl	UART_PutString
  64:main.c        ****         UART_PutString("\n \r");
 229              		.loc 1 64 0
 230 00b8 5848     		ldr	r0, .L17+4
 231 00ba FFF7FEFF 		bl	UART_PutString
 232 00be 0BE0     		b	.L7
 233              	.L6:
  65:main.c        ****     }
  66:main.c        ****     else
  67:main.c        ****     {
  68:main.c        ****         //Display failure message
  69:main.c        ****         UART_PutString("Failed to create\n \r");
 234              		.loc 1 69 0
 235 00c0 5E48     		ldr	r0, .L17+36
 236 00c2 FFF7FEFF 		bl	UART_PutString
  70:main.c        ****         UART_PutString("directory\n \r");
 237              		.loc 1 70 0
 238 00c6 5E48     		ldr	r0, .L17+40
 239 00c8 FFF7FEFF 		bl	UART_PutString
  71:main.c        ****         UART_PutString("\n \r");
 240              		.loc 1 71 0
 241 00cc 5348     		ldr	r0, .L17+4
 242 00ce FFF7FEFF 		bl	UART_PutString
  72:main.c        ****         UART_PutString("\n \r");
 243              		.loc 1 72 0
ARM GAS  C:\Users\ALBERT~1\AppData\Local\Temp\cczDa0Vc.s 			page 8


 244 00d2 5248     		ldr	r0, .L17+4
 245 00d4 FFF7FEFF 		bl	UART_PutString
 246              	.L7:
  73:main.c        ****     }
  74:main.c        ****     
  75:main.c        **** 
  76:main.c        ****     CyDelay(2000u); //Need some delay to indicate output on the Serial monitor
 247              		.loc 1 76 0
 248 00d8 4FF4FA60 		mov	r0, #2000
 249 00dc FFF7FEFF 		bl	CyDelay
  77:main.c        ****     
  78:main.c        ****     //Create specific file for modification
  79:main.c        ****     pFile = FS_FOpen(sdFile, "w");
 250              		.loc 1 79 0
 251 00e0 5849     		ldr	r1, .L17+44
 252 00e2 5948     		ldr	r0, .L17+48
 253 00e4 FFF7FEFF 		bl	FS_FOpen
 254 00e8 F860     		str	r0, [r7, #12]
  80:main.c        ****     
  81:main.c        ****     if(pFile) //Check if file was created
 255              		.loc 1 81 0
 256 00ea FB68     		ldr	r3, [r7, #12]
 257 00ec 002B     		cmp	r3, #0
 258 00ee 57D0     		beq	.L8
  82:main.c        ****     {
  83:main.c        ****         //Indicate successful file creation message
  84:main.c        ****         UART_PutString("File \n \r");
 259              		.loc 1 84 0
 260 00f0 5648     		ldr	r0, .L17+52
 261 00f2 FFF7FEFF 		bl	UART_PutString
  85:main.c        ****         UART_PutString(sdFile);
 262              		.loc 1 85 0
 263 00f6 5448     		ldr	r0, .L17+48
 264 00f8 FFF7FEFF 		bl	UART_PutString
  86:main.c        ****         UART_PutString("was opened\n \r");
 265              		.loc 1 86 0
 266 00fc 5448     		ldr	r0, .L17+56
 267 00fe FFF7FEFF 		bl	UART_PutString
  87:main.c        ****         UART_PutString("\n \r");
 268              		.loc 1 87 0
 269 0102 4648     		ldr	r0, .L17+4
 270 0104 FFF7FEFF 		bl	UART_PutString
  88:main.c        ****         UART_PutString("\n \r");
 271              		.loc 1 88 0
 272 0108 4448     		ldr	r0, .L17+4
 273 010a FFF7FEFF 		bl	UART_PutString
  89:main.c        ****         
  90:main.c        ****         //Need some delay to indicate output on the Serial monitor
  91:main.c        ****         CyDelay(2000u);
 274              		.loc 1 91 0
 275 010e 4FF4FA60 		mov	r0, #2000
 276 0112 FFF7FEFF 		bl	CyDelay
  92:main.c        ****         
  93:main.c        ****         if(0 != FS_Write(pFile, "0123456789", 10u)) 
 277              		.loc 1 93 0
 278 0116 0A22     		movs	r2, #10
 279 0118 4E49     		ldr	r1, .L17+60
ARM GAS  C:\Users\ALBERT~1\AppData\Local\Temp\cczDa0Vc.s 			page 9


 280 011a F868     		ldr	r0, [r7, #12]
 281 011c FFF7FEFF 		bl	FS_Write
 282 0120 0346     		mov	r3, r0
 283 0122 002B     		cmp	r3, #0
 284 0124 0FD0     		beq	.L9
  94:main.c        ****         {
  95:main.c        ****             //Inditate that data was written to a file
  96:main.c        ****             UART_PutString("\"0123456789\"\n \r");
 285              		.loc 1 96 0
 286 0126 4C48     		ldr	r0, .L17+64
 287 0128 FFF7FEFF 		bl	UART_PutString
  97:main.c        ****             UART_PutString(sdFile);
 288              		.loc 1 97 0
 289 012c 4648     		ldr	r0, .L17+48
 290 012e FFF7FEFF 		bl	UART_PutString
  98:main.c        ****             UART_PutString("written to file\n \r");
 291              		.loc 1 98 0
 292 0132 4A48     		ldr	r0, .L17+68
 293 0134 FFF7FEFF 		bl	UART_PutString
  99:main.c        ****             UART_PutString("\n \r");
 294              		.loc 1 99 0
 295 0138 3848     		ldr	r0, .L17+4
 296 013a FFF7FEFF 		bl	UART_PutString
 100:main.c        ****             UART_PutString("\n \r");
 297              		.loc 1 100 0
 298 013e 3748     		ldr	r0, .L17+4
 299 0140 FFF7FEFF 		bl	UART_PutString
 300 0144 0BE0     		b	.L10
 301              	.L9:
 101:main.c        ****         }
 102:main.c        ****         else
 103:main.c        ****         {
 104:main.c        ****             //Display failure message
 105:main.c        ****             UART_PutString("Failed to write\n \r");
 302              		.loc 1 105 0
 303 0146 4648     		ldr	r0, .L17+72
 304 0148 FFF7FEFF 		bl	UART_PutString
 106:main.c        ****             UART_PutString("data to file\n \r");
 305              		.loc 1 106 0
 306 014c 4548     		ldr	r0, .L17+76
 307 014e FFF7FEFF 		bl	UART_PutString
 107:main.c        ****             UART_PutString("\n \r");
 308              		.loc 1 107 0
 309 0152 3248     		ldr	r0, .L17+4
 310 0154 FFF7FEFF 		bl	UART_PutString
 108:main.c        ****             UART_PutString("\n \r");
 311              		.loc 1 108 0
 312 0158 3048     		ldr	r0, .L17+4
 313 015a FFF7FEFF 		bl	UART_PutString
 314              	.L10:
 109:main.c        ****         }
 110:main.c        ****         
 111:main.c        ****         //Need some delay to indicate output on the Serial monitor
 112:main.c        ****         CyDelay(2000u);
 315              		.loc 1 112 0
 316 015e 4FF4FA60 		mov	r0, #2000
 317 0162 FFF7FEFF 		bl	CyDelay
ARM GAS  C:\Users\ALBERT~1\AppData\Local\Temp\cczDa0Vc.s 			page 10


 113:main.c        ****         
 114:main.c        ****         if(0 == FS_FClose(pFile)) //Closing the file
 318              		.loc 1 114 0
 319 0166 F868     		ldr	r0, [r7, #12]
 320 0168 FFF7FEFF 		bl	FS_FClose
 321 016c 0346     		mov	r3, r0
 322 016e 002B     		cmp	r3, #0
 323 0170 09D1     		bne	.L11
 115:main.c        ****         {
 116:main.c        ****             //Succesfull closure
 117:main.c        ****             UART_PutString("File was closed\n \r");
 324              		.loc 1 117 0
 325 0172 3D48     		ldr	r0, .L17+80
 326 0174 FFF7FEFF 		bl	UART_PutString
 118:main.c        ****             UART_PutString("\n \r");
 327              		.loc 1 118 0
 328 0178 2848     		ldr	r0, .L17+4
 329 017a FFF7FEFF 		bl	UART_PutString
 119:main.c        ****             UART_PutString("\n \r");
 330              		.loc 1 119 0
 331 017e 2748     		ldr	r0, .L17+4
 332 0180 FFF7FEFF 		bl	UART_PutString
 333 0184 18E0     		b	.L13
 334              	.L11:
 120:main.c        ****         }
 121:main.c        ****         else
 122:main.c        ****         {
 123:main.c        ****             //Display failure message
 124:main.c        ****             UART_PutString("Failed to close\n \r");
 335              		.loc 1 124 0
 336 0186 3948     		ldr	r0, .L17+84
 337 0188 FFF7FEFF 		bl	UART_PutString
 125:main.c        ****             UART_PutString("file\n \r");
 338              		.loc 1 125 0
 339 018c 3848     		ldr	r0, .L17+88
 340 018e FFF7FEFF 		bl	UART_PutString
 126:main.c        ****             UART_PutString("\n \r");
 341              		.loc 1 126 0
 342 0192 2248     		ldr	r0, .L17+4
 343 0194 FFF7FEFF 		bl	UART_PutString
 127:main.c        ****             UART_PutString("\n \r");
 344              		.loc 1 127 0
 345 0198 2048     		ldr	r0, .L17+4
 346 019a FFF7FEFF 		bl	UART_PutString
 347 019e 0BE0     		b	.L13
 348              	.L8:
 128:main.c        ****         }
 129:main.c        ****     }
 130:main.c        ****     else
 131:main.c        ****     {
 132:main.c        ****         //Display failure message
 133:main.c        ****         UART_PutString("Failed to create\n \r");
 349              		.loc 1 133 0
 350 01a0 2648     		ldr	r0, .L17+36
 351 01a2 FFF7FEFF 		bl	UART_PutString
 134:main.c        ****         UART_PutString("file\n \r");
 352              		.loc 1 134 0
ARM GAS  C:\Users\ALBERT~1\AppData\Local\Temp\cczDa0Vc.s 			page 11


 353 01a6 3248     		ldr	r0, .L17+88
 354 01a8 FFF7FEFF 		bl	UART_PutString
 135:main.c        ****         UART_PutString("\n \r");
 355              		.loc 1 135 0
 356 01ac 1B48     		ldr	r0, .L17+4
 357 01ae FFF7FEFF 		bl	UART_PutString
 136:main.c        ****         UART_PutString("\n \r");
 358              		.loc 1 136 0
 359 01b2 1A48     		ldr	r0, .L17+4
 360 01b4 FFF7FEFF 		bl	UART_PutString
 361              	.L13:
 137:main.c        ****     }
 138:main.c        ****     
 139:main.c        ****     //Need some delay to indicate output on the Serial monitor
 140:main.c        ****     CyDelay(2000u);
 362              		.loc 1 140 0
 363 01b8 4FF4FA60 		mov	r0, #2000
 364 01bc FFF7FEFF 		bl	CyDelay
 141:main.c        ****     
 142:main.c        ****     if(0 == FS_CopyFile(sdFile, "\\Dir\\file1.txt")) //Copy a file to a previously created director
 365              		.loc 1 142 0
 366 01c0 2C49     		ldr	r1, .L17+92
 367 01c2 2148     		ldr	r0, .L17+48
 368 01c4 FFF7FEFF 		bl	FS_CopyFile
 369 01c8 0346     		mov	r3, r0
 370 01ca 002B     		cmp	r3, #0
 371 01cc 0CD1     		bne	.L14
 143:main.c        ****     {
 144:main.c        ****         UART_PutString("File was \n \r");
 372              		.loc 1 144 0
 373 01ce 2A48     		ldr	r0, .L17+96
 374 01d0 FFF7FEFF 		bl	UART_PutString
 145:main.c        ****         UART_PutString("copied to \"DIR\"\n \r");
 375              		.loc 1 145 0
 376 01d4 2948     		ldr	r0, .L17+100
 377 01d6 FFF7FEFF 		bl	UART_PutString
 146:main.c        ****         UART_PutString("\n \r");
 378              		.loc 1 146 0
 379 01da 1048     		ldr	r0, .L17+4
 380 01dc FFF7FEFF 		bl	UART_PutString
 147:main.c        ****         UART_PutString("\n \r");
 381              		.loc 1 147 0
 382 01e0 0E48     		ldr	r0, .L17+4
 383 01e2 FFF7FEFF 		bl	UART_PutString
 384 01e6 0BE0     		b	.L15
 385              	.L14:
 148:main.c        ****     }
 149:main.c        ****     else
 150:main.c        ****     {
 151:main.c        ****         UART_PutString("Failed to copy\n \r");
 386              		.loc 1 151 0
 387 01e8 2548     		ldr	r0, .L17+104
 388 01ea FFF7FEFF 		bl	UART_PutString
 152:main.c        ****         UART_PutString("file\n \r");
 389              		.loc 1 152 0
 390 01ee 2048     		ldr	r0, .L17+88
 391 01f0 FFF7FEFF 		bl	UART_PutString
ARM GAS  C:\Users\ALBERT~1\AppData\Local\Temp\cczDa0Vc.s 			page 12


 153:main.c        ****         UART_PutString("\n \r");
 392              		.loc 1 153 0
 393 01f4 0948     		ldr	r0, .L17+4
 394 01f6 FFF7FEFF 		bl	UART_PutString
 154:main.c        ****         UART_PutString("\n \r");
 395              		.loc 1 154 0
 396 01fa 0848     		ldr	r0, .L17+4
 397 01fc FFF7FEFF 		bl	UART_PutString
 398              	.L15:
 155:main.c        ****     }
 156:main.c        ****     
 157:main.c        ****     CyDelay(2000); //Need some delay to indicate output on the Serial monitor
 399              		.loc 1 157 0
 400 0200 4FF4FA60 		mov	r0, #2000
 401 0204 FFF7FEFF 		bl	CyDelay
 158:main.c        ****     
 159:main.c        ****     //Finish even though we are Danish :3
 160:main.c        ****     UART_PutString("Example project\n \r");
 402              		.loc 1 160 0
 403 0208 1E48     		ldr	r0, .L17+108
 404 020a FFF7FEFF 		bl	UART_PutString
 161:main.c        ****     UART_PutString("completed\n \r");
 405              		.loc 1 161 0
 406 020e 1E48     		ldr	r0, .L17+112
 407 0210 FFF7FEFF 		bl	UART_PutString
 408              	.L16:
 162:main.c        ****     
 163:main.c        ****     for(;;)
 164:main.c        ****     {
 165:main.c        ****         
 166:main.c        ****     }
 409              		.loc 1 166 0 discriminator 1
 410 0214 FEE7     		b	.L16
 411              	.L18:
 412 0216 00BF     		.align	2
 413              	.L17:
 414 0218 00000000 		.word	.LC0
 415 021c 14000000 		.word	.LC1
 416 0220 18000000 		.word	.LC2
 417 0224 2C000000 		.word	.LC3
 418 0228 3C000000 		.word	.LC4
 419 022c 50000000 		.word	.LC5
 420 0230 60000000 		.word	.LC6
 421 0234 6C000000 		.word	.LC7
 422 0238 70000000 		.word	.LC8
 423 023c 84000000 		.word	.LC9
 424 0240 98000000 		.word	.LC10
 425 0244 A8000000 		.word	.LC11
 426 0248 00000000 		.word	sdFile
 427 024c AC000000 		.word	.LC12
 428 0250 B8000000 		.word	.LC13
 429 0254 C8000000 		.word	.LC14
 430 0258 D4000000 		.word	.LC15
 431 025c E4000000 		.word	.LC16
 432 0260 F8000000 		.word	.LC17
 433 0264 0C010000 		.word	.LC18
 434 0268 1C010000 		.word	.LC19
ARM GAS  C:\Users\ALBERT~1\AppData\Local\Temp\cczDa0Vc.s 			page 13


 435 026c 30010000 		.word	.LC20
 436 0270 44010000 		.word	.LC21
 437 0274 4C010000 		.word	.LC22
 438 0278 5C010000 		.word	.LC23
 439 027c 6C010000 		.word	.LC24
 440 0280 80010000 		.word	.LC25
 441 0284 94010000 		.word	.LC26
 442 0288 A8010000 		.word	.LC27
 443              		.cfi_endproc
 444              	.LFE63:
 445              		.size	main, .-main
 446              		.text
 447              	.Letext0:
 448              		.file 2 "c:\\program files (x86)\\cypress\\psoc creator\\4.2\\psoc creator\\import\\gnu\\arm\\5.4.
 449              		.file 3 "c:\\program files (x86)\\cypress\\psoc creator\\4.2\\psoc creator\\import\\gnu\\arm\\5.4.
 450              		.file 4 "..\\emFile_V322c\\emFile_V322c\\Code\\Include\\PSoC5/FS_Types.h"
 451              		.file 5 "Generated_Source\\PSoC5/core_cm3.h"